; Function Attrs: mustprogress uwtable
define void @_ZN5osgeo4proj6common13UnitOfMeasureC2ERKS2_(ptr noundef nonnull align 8 dereferenceable(24) %0, ptr noundef nonnull readonly align 8 captures(none) dereferenceable(24) %1) unnamed_addr #0 align 2 personality ptr @__gxx_personality_v0 {
  tail call void @_ZN5osgeo4proj4util10BaseObjectC2Ev(ptr noundef nonnull align 8 dereferenceable(16) %0)
  store ptr getelementptr inbounds nuw inrange(-16, 16) (i8, ptr @_ZTVN5osgeo4proj6common13UnitOfMeasureE, i64 16), ptr %0, align 8, !tbaa !3
  %3 = getelementptr inbounds nuw i8, ptr %1, i64 16
  %4 = load ptr, ptr %3, align 8, !tbaa !9
  tail call void @llvm.experimental.noalias.scope.decl(metadata !13)
  %5 = invoke noalias noundef nonnull dereferenceable(112) ptr @_Znwm(i64 noundef 112) #38
          to label %.noexc unwind label %10

.noexc:                                           ; preds = %2
  invoke void @_ZN5osgeo4proj6common13UnitOfMeasure7PrivateC2ERKS3_(ptr noundef nonnull align 8 dereferenceable(112) %5, ptr noundef nonnull align 8 dereferenceable(112) %4)
          to label %8 unwind label %6, !noalias !13

6:                                                ; preds = %.noexc
  %7 = landingpad { ptr, i32 }
          cleanup
  tail call void @_ZdlPvm(ptr noundef nonnull %5, i64 noundef 112) #39, !noalias !13
  br label %.body

8:                                                ; preds = %.noexc
  %9 = getelementptr inbounds nuw i8, ptr %0, i64 16
  store ptr %5, ptr %9, align 8, !tbaa !9, !alias.scope !13
  ret void

10:                                               ; preds = %2
  %11 = landingpad { ptr, i32 }
          cleanup
  br label %.body

.body:                                            ; preds = %6, %10
  %eh.lpad-body = phi { ptr, i32 } [ %11, %10 ], [ %7, %6 ]
  tail call void @_ZN5osgeo4proj4util10BaseObjectD2Ev(ptr noundef nonnull align 8 dereferenceable(16) %0) #40
  resume { ptr, i32 } %eh.lpad-body
}